target datalayout = "e-m:e-p270:32:32-p271:32:32-p272:64:64-i64:64-i128:128-f80:128-n8:16:32:64-S128"
target triple = "x86_64-pc-linux-gnu"

%struct.If_Cut_t_ = type <{ float, float, float, float, i32, i32, i32, i64, [0 x i32] }>
%struct.If_Man_t_ = type { ptr, ptr, ptr, ptr, ptr, ptr, ptr, ptr, [5 x i32], i32, float, float, float, float, i32, float, i32, i32, [4 x ptr], ptr, i32, i32, i32, ptr, [3 x [32 x i32]], i32, i32, i32, ptr, ptr, ptr, ptr, ptr, ptr, ptr, i32, i32, i32, [16 x i32], i32, i32, i32, i32, ptr, ptr, ptr, ptr, ptr, i32, i32, [32 x i32], [32 x i32], i32, i32, i32, i32, ptr, [16 x ptr], [16 x ptr], [16 x ptr], [16 x ptr], [16 x ptr], [16 x ptr], [16 x ptr], ptr, ptr, ptr, ptr, [32 x i8], i32, i32, i32, [6 x i64], [2 x i32], [2 x i32], ptr, [15 x i32], ptr, ptr, ptr, [16 x i32], ptr, ptr, ptr, ptr, [2 x i32], [2 x i32], [2 x ptr], ptr }

; Function Attrs: nounwind uwtable
define i32 @If_CutCompareArea(ptr noundef %0, ptr noundef %1, ptr noundef %2) #0 {
  %4 = alloca i32, align 4
  %5 = alloca ptr, align 8
  %6 = alloca ptr, align 8
  %7 = alloca ptr, align 8
  %8 = alloca ptr, align 8
  %9 = alloca ptr, align 8
  %10 = alloca i32, align 4
  store ptr %0, ptr %5, align 8, !tbaa !35
  store ptr %1, ptr %6, align 8, !tbaa !61
  store ptr %2, ptr %7, align 8, !tbaa !61
  call void @llvm.lifetime.start.p0(i64 8, ptr %8) #9
  %11 = load ptr, ptr %6, align 8, !tbaa !61
  %12 = load ptr, ptr %11, align 8, !tbaa !15
  store ptr %12, ptr %8, align 8, !tbaa !15
  call void @llvm.lifetime.start.p0(i64 8, ptr %9) #9
  %13 = load ptr, ptr %7, align 8, !tbaa !61
  %14 = load ptr, ptr %13, align 8, !tbaa !15
  store ptr %14, ptr %9, align 8, !tbaa !15
  %15 = load ptr, ptr %8, align 8, !tbaa !15
  %16 = getelementptr inbounds nuw %struct.If_Cut_t_, ptr %15, i32 0, i32 0
  %17 = load float, ptr %16, align 4, !tbaa !64
  %18 = load ptr, ptr %9, align 8, !tbaa !15
  %19 = getelementptr inbounds nuw %struct.If_Cut_t_, ptr %18, i32 0, i32 0
  %20 = load float, ptr %19, align 4, !tbaa !64
  %21 = load ptr, ptr %5, align 8, !tbaa !35
  %22 = getelementptr inbounds nuw %struct.If_Man_t_, ptr %21, i32 0, i32 10
  %23 = load float, ptr %22, align 8, !tbaa !63
  %24 = fsub float %20, %23
  %25 = fcmp olt float %17, %24
  br i1 %25, label %26, label %27

26:                                               ; preds = %3
  store i32 -1, ptr %4, align 4
  store i32 1, ptr %10, align 4
  br label %97

27:                                               ; preds = %3
  %28 = load ptr, ptr %8, align 8, !tbaa !15
  %29 = getelementptr inbounds nuw %struct.If_Cut_t_, ptr %28, i32 0, i32 0
  %30 = load float, ptr %29, align 4, !tbaa !64
  %31 = load ptr, ptr %9, align 8, !tbaa !15
  %32 = getelementptr inbounds nuw %struct.If_Cut_t_, ptr %31, i32 0, i32 0
  %33 = load float, ptr %32, align 4, !tbaa !64
  %34 = load ptr, ptr %5, align 8, !tbaa !35
  %35 = getelementptr inbounds nuw %struct.If_Man_t_, ptr %34, i32 0, i32 10
  %36 = load float, ptr %35, align 8, !tbaa !63
  %37 = fadd float %33, %36
  %38 = fcmp ogt float %30, %37
  br i1 %38, label %39, label %40

39:                                               ; preds = %27
  store i32 1, ptr %4, align 4
  store i32 1, ptr %10, align 4
  br label %97

40:                                               ; preds = %27
  %41 = load ptr, ptr %8, align 8, !tbaa !15
  %42 = getelementptr inbounds nuw %struct.If_Cut_t_, ptr %41, i32 0, i32 7
  %43 = load i64, ptr %42, align 4
  %44 = lshr i64 %43, 24
  %45 = and i64 %44, 255
  %46 = trunc i64 %45 to i32
  %47 = load ptr, ptr %9, align 8, !tbaa !15
  %48 = getelementptr inbounds nuw %struct.If_Cut_t_, ptr %47, i32 0, i32 7
  %49 = load i64, ptr %48, align 4
  %50 = lshr i64 %49, 24
  %51 = and i64 %50, 255
  %52 = trunc i64 %51 to i32
  %53 = icmp slt i32 %46, %52
  br i1 %53, label %54, label %55

54:                                               ; preds = %40
  store i32 -1, ptr %4, align 4
  store i32 1, ptr %10, align 4
  br label %97

55:                                               ; preds = %40
  %56 = load ptr, ptr %8, align 8, !tbaa !15
  %57 = getelementptr inbounds nuw %struct.If_Cut_t_, ptr %56, i32 0, i32 7
  %58 = load i64, ptr %57, align 4
  %59 = lshr i64 %58, 24
  %60 = and i64 %59, 255
  %61 = trunc i64 %60 to i32
  %62 = load ptr, ptr %9, align 8, !tbaa !15
  %63 = getelementptr inbounds nuw %struct.If_Cut_t_, ptr %62, i32 0, i32 7
  %64 = load i64, ptr %63, align 4
  %65 = lshr i64 %64, 24
  %66 = and i64 %65, 255
  %67 = trunc i64 %66 to i32
  %68 = icmp sgt i32 %61, %67
  br i1 %68, label %69, label %70

69:                                               ; preds = %55
  store i32 1, ptr %4, align 4
  store i32 1, ptr %10, align 4
  br label %97

70:                                               ; preds = %55
  %71 = load ptr, ptr %8, align 8, !tbaa !15
  %72 = getelementptr inbounds nuw %struct.If_Cut_t_, ptr %71, i32 0, i32 3
  %73 = load float, ptr %72, align 4, !tbaa !62
  %74 = load ptr, ptr %9, align 8, !tbaa !15
  %75 = getelementptr inbounds nuw %struct.If_Cut_t_, ptr %74, i32 0, i32 3
  %76 = load float, ptr %75, align 4, !tbaa !62
  %77 = load ptr, ptr %5, align 8, !tbaa !35
  %78 = getelementptr inbounds nuw %struct.If_Man_t_, ptr %77, i32 0, i32 10
  %79 = load float, ptr %78, align 8, !tbaa !63
  %80 = fsub float %76, %79
  %81 = fcmp olt float %73, %80
  br i1 %81, label %82, label %83

82:                                               ; preds = %70
  store i32 -1, ptr %4, align 4
  store i32 1, ptr %10, align 4
  br label %97

83:                                               ; preds = %70
  %84 = load ptr, ptr %8, align 8, !tbaa !15
  %85 = getelementptr inbounds nuw %struct.If_Cut_t_, ptr %84, i32 0, i32 3
  %86 = load float, ptr %85, align 4, !tbaa !62
  %87 = load ptr, ptr %9, align 8, !tbaa !15
  %88 = getelementptr inbounds nuw %struct.If_Cut_t_, ptr %87, i32 0, i32 3
  %89 = load float, ptr %88, align 4, !tbaa !62
  %90 = load ptr, ptr %5, align 8, !tbaa !35
  %91 = getelementptr inbounds nuw %struct.If_Man_t_, ptr %90, i32 0, i32 10
  %92 = load float, ptr %91, align 8, !tbaa !63
  %93 = fadd float %89, %92
  %94 = fcmp ogt float %86, %93
  br i1 %94, label %95, label %96

95:                                               ; preds = %83
  store i32 1, ptr %4, align 4
  store i32 1, ptr %10, align 4
  br label %97

96:                                               ; preds = %83
  store i32 0, ptr %4, align 4
  store i32 1, ptr %10, align 4
  br label %97

97:                                               ; preds = %96, %95, %82, %69, %54, %39, %26
  call void @llvm.lifetime.end.p0(i64 8, ptr %9) #9
  call void @llvm.lifetime.end.p0(i64 8, ptr %8) #9
  %98 = load i32, ptr %4, align 4
  ret i32 %98
}