; Function Attrs: mustprogress nofree norecurse nosync nounwind willreturn memory(read, inaccessiblemem: none) uwtable
define range(i32 -1, 2) i32 @If_CutCompareArea(ptr noundef readonly captures(none) %0, ptr noundef readonly captures(none) %1, ptr noundef readonly captures(none) %2) local_unnamed_addr #4 {
  %4 = load ptr, ptr %1, align 8, !tbaa !12
  %5 = load ptr, ptr %2, align 8, !tbaa !12
  %6 = load float, ptr %4, align 4, !tbaa !56
  %7 = load float, ptr %5, align 4, !tbaa !56
  %8 = getelementptr inbounds nuw i8, ptr %0, i64 88
  %9 = load float, ptr %8, align 8, !tbaa !55
  %10 = fsub float %7, %9
  %11 = fcmp olt float %6, %10
  br i1 %11, label %37, label %12

12:                                               ; preds = %3
  %13 = fadd float %7, %9
  %14 = fcmp ogt float %6, %13
  br i1 %14, label %37, label %15

15:                                               ; preds = %12
  %16 = getelementptr inbounds nuw i8, ptr %4, i64 28
  %17 = load i64, ptr %16, align 4
  %18 = trunc i64 %17 to i32
  %19 = lshr i32 %18, 24
  %20 = getelementptr inbounds nuw i8, ptr %5, i64 28
  %21 = load i64, ptr %20, align 4
  %22 = trunc i64 %21 to i32
  %23 = lshr i32 %22, 24
  %24 = icmp samesign ult i32 %19, %23
  br i1 %24, label %37, label %25

25:                                               ; preds = %15
  %26 = icmp samesign ugt i32 %19, %23
  br i1 %26, label %37, label %27

27:                                               ; preds = %25
  %28 = getelementptr inbounds nuw i8, ptr %4, i64 12
  %29 = load float, ptr %28, align 4, !tbaa !54
  %30 = getelementptr inbounds nuw i8, ptr %5, i64 12
  %31 = load float, ptr %30, align 4, !tbaa !54
  %32 = fsub float %31, %9
  %33 = fcmp olt float %29, %32
  br i1 %33, label %37, label %34

34:                                               ; preds = %27
  %35 = fadd float %9, %31
  %36 = fcmp ogt float %29, %35
  %. = zext i1 %36 to i32
  br label %37

37:                                               ; preds = %34, %27, %25, %15, %12, %3
  %.0 = phi i32 [ -1, %3 ], [ 1, %12 ], [ -1, %15 ], [ 1, %25 ], [ -1, %27 ], [ %., %34 ]
  ret i32 %.0
}